; Function Attrs: null_pointer_is_valid sspstrong uwtable
define internal fastcc void @dissect_uftp_abort(ptr noundef %0, ptr noundef %1, ptr noundef %2) unnamed_addr #0 {
  %4 = tail call i32 @tvb_reported_length(ptr noundef %0)
  %5 = icmp ult i32 %4, 308
  br i1 %5, label %6, label %9

6:                                                ; preds = %3
  %7 = tail call i32 @tvb_reported_length(ptr noundef %0)
  %8 = tail call ptr (ptr, ptr, ptr, ptr, i32, i32, ptr, ...) @proto_tree_add_expert_format(ptr noundef %2, ptr noundef %1, ptr noundef nonnull @ei_uftp_length_invalid, ptr noundef %0, i32 noundef 0, i32 noundef -1, ptr noundef nonnull @.str.427, i32 noundef %7)
  br label %37

9:                                                ; preds = %3
  %10 = tail call zeroext i8 @tvb_get_uint8(ptr noundef %0, i32 noundef 1)
  %11 = zext i8 %10 to i32
  %12 = shl nuw nsw i32 %11, 2
  %13 = tail call i32 @tvb_reported_length(ptr noundef %0)
  %14 = icmp slt i32 %13, %12
  %15 = icmp ult i8 %10, 77
  %or.cond = select i1 %14, i1 true, i1 %15
  br i1 %or.cond, label %16, label %19

16:                                               ; preds = %9
  %17 = tail call i32 @tvb_reported_length(ptr noundef %0)
  %18 = tail call ptr (ptr, ptr, ptr, ptr, i32, i32, ptr, ...) @proto_tree_add_expert_format(ptr noundef %2, ptr noundef %1, ptr noundef nonnull @ei_uftp_length_invalid, ptr noundef %0, i32 noundef 0, i32 noundef -1, ptr noundef nonnull @.str.428, i32 noundef %17, i32 noundef %12)
  br label %37

19:                                               ; preds = %9
  %20 = load i32, ptr @hf_uftp_abort, align 4
  %21 = tail call ptr @proto_tree_add_item(ptr noundef %2, i32 noundef %20, ptr noundef %0, i32 noundef 0, i32 noundef -1, i32 noundef 0)
  %22 = load i32, ptr @ett_uftp_abort, align 4
  %23 = tail call ptr @proto_item_add_subtree(ptr noundef %21, i32 noundef %22)
  %24 = load i32, ptr @hf_uftp_abort_func, align 4
  %25 = tail call ptr @proto_tree_add_item(ptr noundef %23, i32 noundef %24, ptr noundef %0, i32 noundef 0, i32 noundef 1, i32 noundef 0)
  %26 = load i32, ptr @hf_uftp_abort_hlen, align 4
  %27 = tail call ptr (ptr, i32, ptr, i32, i32, i32, ptr, ...) @proto_tree_add_uint_format_value(ptr noundef %23, i32 noundef %26, ptr noundef %0, i32 noundef 1, i32 noundef 1, i32 noundef %12, ptr noundef nonnull @.str.429, i32 noundef %12, i32 noundef %11)
  %28 = load i32, ptr @hf_uftp_abort_flags, align 4
  %29 = load i32, ptr @ett_uftp_abort_flags, align 4
  %30 = tail call ptr @proto_tree_add_bitmask(ptr noundef %23, ptr noundef %0, i32 noundef 2, i32 noundef %28, i32 noundef %29, ptr noundef nonnull @abort_flags, i32 noundef 0)
  %31 = load i32, ptr @hf_uftp_abort_reserved, align 4
  %32 = tail call ptr @proto_tree_add_item(ptr noundef %23, i32 noundef %31, ptr noundef %0, i32 noundef 3, i32 noundef 1, i32 noundef 0)
  %33 = load i32, ptr @hf_uftp_abort_clientid, align 4
  %34 = tail call ptr @proto_tree_add_item(ptr noundef %23, i32 noundef %33, ptr noundef %0, i32 noundef 4, i32 noundef 4, i32 noundef 0)
  %35 = load i32, ptr @hf_uftp_abort_message, align 4
  %36 = tail call ptr @proto_tree_add_item(ptr noundef %23, i32 noundef %35, ptr noundef %0, i32 noundef 8, i32 noundef -1, i32 noundef 0)
  br label %37

37:                                               ; preds = %19, %16, %6
  ret void
}